((dp1
Vpyannote.core.annotation
p2
(dp3
S'funcs'
p4
(lp5
sS'classes'
p6
(dp7
S'Annotation'
p8
(lp9
sssVpyannote.core.json
p10
(dp11
g4
(lp12
sg6
(dp13
ssVpyannote.core.timeline
p14
(dp15
g4
(lp16
sg6
(dp17
S'Timeline'
p18
(lp19
sssVpyannote.core.notebook
p20
(dp21
g4
(lp22
sg6
(dp23
S'Notebook'
p24
(lp25
sssVpyannote.core.segment
p26
(dp27
g4
(lp28
sg6
(dp29
S'SlidingWindow'
p30
(lp31
sS'Segment'
p32
(lp33
sss(dp34
t.